; Function Attrs: mustprogress uwtable
define noundef range(i32 -2147483647, -2147483648) i32 @_ZN5ezSAT12bind_cnf_andERKSt6vectorIiSaIiEE(ptr noundef nonnull align 8 dereferenceable(284) %0, ptr noundef nonnull readonly align 8 captures(none) dereferenceable(24) %1) local_unnamed_addr #0 align 2 {
  %3 = getelementptr inbounds nuw i8, ptr %0, i64 164
  %4 = load i32, ptr %3, align 4, !tbaa !58
  %5 = add nsw i32 %4, 1
  store i32 %5, ptr %3, align 4, !tbaa !58
  tail call void @_ZN5ezSAT10add_clauseERKSt6vectorIiSaIiEEbiii(ptr noundef nonnull align 8 dereferenceable(284) %0, ptr noundef nonnull align 8 dereferenceable(24) %1, i1 noundef zeroext false, i32 noundef %5, i32 noundef 0, i32 noundef 0)
  %6 = load ptr, ptr %1, align 8, !tbaa !101
  %7 = getelementptr inbounds nuw i8, ptr %1, i64 8
  %8 = load ptr, ptr %7, align 8, !tbaa !101
  %.not11 = icmp eq ptr %6, %8
  br i1 %.not11, label %._crit_edge, label %.lr.ph

.lr.ph:                                           ; preds = %2
  %9 = xor i32 %4, -1
  br label %10

._crit_edge:                                      ; preds = %10, %2
  ret i32 %5

10:                                               ; preds = %.lr.ph, %10
  %.sroa.08.012 = phi ptr [ %6, %.lr.ph ], [ %12, %10 ]
  %11 = load i32, ptr %.sroa.08.012, align 4, !tbaa !78
  tail call void @_ZN5ezSAT10add_clauseEiii(ptr noundef nonnull align 8 dereferenceable(284) %0, i32 noundef %9, i32 noundef %11, i32 noundef 0)
  %12 = getelementptr inbounds nuw i8, ptr %.sroa.08.012, i64 4
  %.not = icmp eq ptr %12, %8
  br i1 %.not, label %._crit_edge, label %10
}